; Function Attrs: mustprogress uwtable
define hidden noundef ptr @ncnn_allocator_create_pool_allocator() local_unnamed_addr #1 personality ptr @__gxx_personality_v0 {
  %1 = tail call noalias dereferenceable_or_null(24) ptr @malloc(i64 noundef 24) #23
  %2 = tail call noalias noundef nonnull dereferenceable(24) ptr @_Znwm(i64 noundef 24) #24
  invoke void @_ZN4ncnn13PoolAllocatorC2Ev(ptr noundef nonnull align 8 dereferenceable(16) %2)
          to label %3 unwind label %7

3:                                                ; preds = %0
  store ptr getelementptr inbounds inrange(-16, 32) (i8, ptr @_ZTV19PoolAllocator_c_api, i64 16), ptr %2, align 8
  %4 = getelementptr inbounds nuw i8, ptr %2, i64 16
  store ptr %1, ptr %4, align 8
  store ptr %2, ptr %1, align 8
  %5 = getelementptr inbounds nuw i8, ptr %1, i64 8
  store ptr @_ZL32__ncnn_PoolAllocator_fast_mallocP18__ncnn_allocator_tm, ptr %5, align 8
  %6 = getelementptr inbounds nuw i8, ptr %1, i64 16
  store ptr @_ZL30__ncnn_PoolAllocator_fast_freeP18__ncnn_allocator_tPv, ptr %6, align 8
  ret ptr %1

7:                                                ; preds = %0
  %8 = landingpad { ptr, i32 }
          cleanup
  tail call void @_ZdlPvm(ptr noundef nonnull %2, i64 noundef 24) #25
  resume { ptr, i32 } %8
}